; Function Attrs: nounwind uwtable
define internal fastcc void @_print_version() unnamed_addr #8 {
  tail call void @print_slurm_version() #18
  %1 = load i32, ptr @quiet_flag, align 4
  %2 = icmp eq i32 %1, -1
  br i1 %2, label %3, label %11

3:                                                ; preds = %0
  %4 = tail call i64 @slurm_api_version() #18
  %5 = lshr i64 %4, 16
  %6 = and i64 %5, 255
  %7 = lshr i64 %4, 8
  %8 = and i64 %7, 255
  %9 = and i64 %4, 255
  %10 = tail call i32 (ptr, ...) @printf(ptr noundef nonnull dereferenceable(1) @.str.62, i64 noundef %4, i64 noundef %6, i64 noundef %8, i64 noundef %9)
  br label %11

11:                                               ; preds = %3, %0
  ret void
}